; Function Attrs: nounwind uwtable
define void @av_bprint_get_buffer(ptr noundef captures(address) %0, i32 noundef %1, ptr noundef writeonly captures(none) initializes((0, 8)) %2, ptr noundef writeonly captures(none) initializes((0, 4)) %3) local_unnamed_addr #0 {
  %5 = getelementptr inbounds nuw i8, ptr %0, i64 12
  %6 = load i32, ptr %5, align 4, !tbaa !12
  %7 = getelementptr inbounds nuw i8, ptr %0, i64 8
  %8 = load i32, ptr %7, align 8, !tbaa !11
  %9 = tail call i32 @llvm.usub.sat.i32(i32 %6, i32 %8)
  %10 = icmp ugt i32 %1, %9
  br i1 %10, label %11, label %av_bprint_alloc.exit

11:                                               ; preds = %4
  %12 = getelementptr inbounds nuw i8, ptr %0, i64 16
  %13 = load i32, ptr %12, align 8, !tbaa !13
  %14 = icmp ne i32 %6, %13
  %.not.i = icmp ult i32 %8, %6
  %or.cond = and i1 %.not.i, %14
  br i1 %or.cond, label %15, label %av_bprint_alloc.exit

15:                                               ; preds = %11
  %16 = add nuw i32 %8, 1
  %17 = sub nuw i32 -2, %8
  %..i = tail call i32 @llvm.umin.i32(i32 %17, i32 %1)
  %18 = add i32 %16, %..i
  %19 = lshr i32 %13, 1
  %20 = icmp ugt i32 %6, %19
  %21 = shl nuw i32 %6, 1
  %22 = select i1 %20, i32 %13, i32 %21
  %23 = icmp ult i32 %22, %18
  %.44.i = tail call i32 @llvm.umin.i32(i32 %13, i32 %18)
  %.0.i = select i1 %23, i32 %.44.i, i32 %22
  %24 = load ptr, ptr %0, align 8, !tbaa !4
  %25 = getelementptr inbounds nuw i8, ptr %0, i64 20
  %.not41.i = icmp eq ptr %24, %25
  %spec.select.i = select i1 %.not41.i, ptr null, ptr %24
  %26 = zext i32 %.0.i to i64
  %27 = tail call ptr @av_realloc(ptr noundef %spec.select.i, i64 noundef %26) #12
  %.not42.i = icmp eq ptr %27, null
  br i1 %.not42.i, label %.av_bprint_alloc.exit_crit_edge, label %28

.av_bprint_alloc.exit_crit_edge:                  ; preds = %15
  %.pre = load i32, ptr %5, align 4, !tbaa !12
  br label %av_bprint_alloc.exit

28:                                               ; preds = %15
  %.not43.i = icmp eq ptr %spec.select.i, null
  br i1 %.not43.i, label %29, label %34

29:                                               ; preds = %28
  %30 = load ptr, ptr %0, align 8, !tbaa !4
  %31 = load i32, ptr %7, align 8, !tbaa !11
  %32 = add i32 %31, 1
  %33 = zext i32 %32 to i64
  tail call void @llvm.memcpy.p0.p0.i64(ptr nonnull align 1 %27, ptr align 1 %30, i64 %33, i1 false)
  br label %34

34:                                               ; preds = %29, %28
  store ptr %27, ptr %0, align 8, !tbaa !4
  store i32 %.0.i, ptr %5, align 4, !tbaa !12
  br label %av_bprint_alloc.exit

av_bprint_alloc.exit:                             ; preds = %.av_bprint_alloc.exit_crit_edge, %34, %11, %4
  %35 = phi i32 [ %.pre, %.av_bprint_alloc.exit_crit_edge ], [ %.0.i, %34 ], [ %6, %11 ], [ %6, %4 ]
  %36 = load i32, ptr %7, align 8, !tbaa !11
  %37 = tail call i32 @llvm.usub.sat.i32(i32 %35, i32 %36)
  store i32 %37, ptr %3, align 4, !tbaa !15
  %.not.not = icmp ugt i32 %35, %36
  br i1 %.not.not, label %38, label %43

38:                                               ; preds = %av_bprint_alloc.exit
  %39 = load ptr, ptr %0, align 8, !tbaa !4
  %40 = load i32, ptr %7, align 8, !tbaa !11
  %41 = zext i32 %40 to i64
  %42 = getelementptr inbounds nuw i8, ptr %39, i64 %41
  br label %43

43:                                               ; preds = %av_bprint_alloc.exit, %38
  %44 = phi ptr [ %42, %38 ], [ null, %av_bprint_alloc.exit ]
  store ptr %44, ptr %2, align 8, !tbaa !16
  ret void
}